(iiadfa
IncrementalAdfa
p0
(dp1
S'states'
p2
(dp3
S'q212'
p4
(istate
State
p5
(dp6
S'epsilon'
p7
(lp8
sS'transitions'
p9
(dp10
S'l'
p11
S'q15'
p12
ssS'name'
p13
g4
sbsS'q210'
p14
(istate
State
p15
(dp16
g7
(lp17
sg9
(dp18
S'a'
p19
S'q211'
p20
sS'e'
p21
S'q78'
p22
ssg13
g14
sbsg20
(istate
State
p23
(dp24
g7
(lp25
sg9
(dp26
S'b'
p27
g4
ssg13
g20
sbsS'q42'
p28
(istate
State
p29
(dp30
g7
(lp31
sg9
(dp32
S't'
p33
S'q43'
p34
ssg13
g28
sbsg34
(istate
State
p35
(dp36
g7
(lp37
sg9
(dp38
g19
S'q5'
p39
ssg13
g34
sbsS'q40'
p40
(istate
State
p41
(dp42
g7
(lp43
sg9
(dp44
g33
S'q9'
p45
ssg13
g40
sbsS'q353'
p46
(istate
State
p47
(dp48
g7
(lp49
sg9
(dp50
S'p'
p51
S'q354'
p52
ssg13
g46
sbsS'q352'
p53
(istate
State
p54
(dp55
g7
(lp56
sg9
(dp57
S'o'
p58
g46
ssg13
g53
sbsS'q351'
p59
(istate
State
p60
(dp61
g7
(lp62
sg9
(dp63
S'r'
p64
g53
ssg13
g59
sbsS'q350'
p65
(istate
State
p66
(dp67
g7
(lp68
sg9
(dp69
g33
g59
ssg13
g65
sbsS'q357'
p70
(istate
State
p71
(dp72
g7
(lp73
sg9
(dp74
g19
S'q358'
p75
sg21
S'q370'
p76
sg11
S'q378'
p77
sg58
S'q389'
p78
sg64
S'q392'
p79
sS'u'
p80
S'q419'
p81
ssg13
g70
sbsS'q359'
p82
(istate
State
p83
(dp84
g7
(lp85
sg9
(dp86
g21
S'q360'
p87
ssg13
g82
sbsS'q49'
p88
(istate
State
p89
(dp90
g7
(lp91
sg9
(dp92
S's'
p93
S'q50'
p94
ssg13
g88
sbsS'q861'
p95
(istate
State
p96
(dp97
g7
(lp98
sg9
(dp99
g21
S'q862'
p100
ssg13
g95
sbsS'q860'
p101
(istate
State
p102
(dp103
g7
(lp104
sg9
(dp105
S'c'
p106
g95
ssg13
g101
sbsg75
(istate
State
p107
(dp108
g7
(lp109
sg9
(dp110
g64
g82
ssg13
g75
sbsS'q867'
p111
(istate
State
p112
(dp113
g7
(lp114
sg9
(dp115
S'm'
p116
S'q868'
p117
ssg13
g111
sbsS'q866'
p118
(istate
State
p119
(dp120
g7
(lp121
sg9
(dp122
g19
g111
ssg13
g118
sbsS'q680'
p123
(istate
State
p124
(dp125
g7
(lp126
sg9
(dp127
g27
S'q681'
p128
sg116
S'q425'
p129
ssg13
g123
sbsS'q1'
p130
(istate
State
p131
(dp132
g7
(lp133
sg9
(dp134
g106
S'q28'
p135
sg27
S'q2'
p136
sS'd'
p137
S'q113'
p138
sS'g'
p139
S'q190'
p140
sS'f'
p141
S'q166'
p142
sS'j'
p143
S'q207'
p144
sg116
S'q247'
p145
sg11
S'q220'
p146
sS'n'
p147
S'q297'
p148
sg51
S'q348'
p149
sg93
S'q484'
p150
sg64
S'q435'
p151
sg80
S'q605'
p152
sg33
S'q562'
p153
sS'v'
p154
S'q670'
p155
sS'z'
p156
S'q710'
p157
ssg13
g130
sbsS'q0'
p158
(istate
State
p159
(dp160
g7
(lp161
sg9
(dp162
g19
g130
sg106
S'q756'
p163
sg27
S'q715'
p164
sg116
g118
sg137
S'q859'
p165
ssg13
g158
sbsS'q3'
p166
(istate
State
p167
(dp168
g7
(lp169
sg9
(dp170
g80
S'q4'
p171
ssg13
g166
sbsg136
(istate
State
p172
(dp173
g7
(lp174
sg9
(dp175
g93
S'q17'
p176
sg64
S'q10'
p177
sg137
g166
ssg13
g136
sbsg39
(istate
State
p178
(dp179
g7
(lp180
sg9
(dp181
g33
S'q6'
p182
ssg13
g39
sbsg171
(istate
State
p183
(dp184
g7
(lp185
sg9
(dp186
g106
g39
ssg13
g171
sbsS'q7'
p187
(istate
State
p188
(dp189
g7
(lp190
sg9
(dp191
g58
S'q8'
p192
ssg13
g187
sbsg182
(istate
State
p193
(dp194
g7
(lp195
sg9
(dp196
S'i'
p197
g187
ssg13
g182
sbsg45
(istate
State
p198
(dp199
g7
(lp200
sg9
(dp201
sg13
g45
sbsg192
(istate
State
p202
(dp203
g7
(lp204
sg9
(dp205
g147
g45
ssg13
g192
sbsS'q628'
p206
(istate
State
p207
(dp208
g7
(lp209
sg9
(dp210
g19
S'q60'
p211
ssg13
g206
sbsS'q455'
p212
(istate
State
p213
(dp214
g7
(lp215
sg9
(dp216
g58
S'q168'
p217
ssg13
g212
sbsS'q769'
p218
(istate
State
p219
(dp220
g7
(lp221
sg9
(dp222
g141
S'q770'
p223
ssg13
g218
sbsS'q100'
p224
(istate
State
p225
(dp226
g7
(lp227
sg9
(dp228
g80
S'q101'
p229
ssg13
g224
sbsg229
(istate
State
p230
(dp231
g7
(lp232
sg9
(dp233
g64
g45
ssg13
g229
sbsS'q510'
p234
(istate
State
p235
(dp236
g7
(lp237
sg9
(dp238
g116
S'q222'
p239
sg154
S'q74'
p240
ssg13
g234
sbsg150
(istate
State
p241
(dp242
g7
(lp243
sg9
(dp244
S'y'
p245
S'q554'
p246
sg51
S'q492'
p247
sg106
S'q485'
p248
sg93
S'q500'
p249
sg33
S'q550'
p250
ssg13
g150
sbsg165
(istate
State
p251
(dp252
g7
(lp253
sg9
(dp254
g21
g101
ssg13
g165
sbsS'q33'
p255
(istate
State
p256
(dp257
g7
(lp258
sg9
(dp259
g58
S'q34'
p260
ssg13
g255
sbsS'q32'
p261
(istate
State
p262
(dp263
g7
(lp264
sg9
(dp265
g64
g255
ssg13
g261
sbsS'q31'
p266
(istate
State
p267
(dp268
g7
(lp269
sg9
(dp270
g21
g261
ssg13
g266
sbsS'q30'
p271
(istate
State
p272
(dp273
g7
(lp274
sg9
(dp275
g51
g28
sg93
g88
sg11
g266
sg147
g40
ssg13
g271
sbsS'q37'
p276
(istate
State
p277
(dp278
g7
(lp279
sg9
(dp280
g64
g12
ssg13
g276
sbsS'q36'
p281
(istate
State
p282
(dp283
g7
(lp284
sg9
(dp285
g33
g276
ssg13
g281
sbsS'q35'
p286
(istate
State
p287
(dp288
g7
(lp289
sg9
(dp290
g21
g281
ssg13
g286
sbsg260
(istate
State
p291
(dp292
g7
(lp293
sg9
(dp294
g116
g286
ssg13
g260
sbsg52
(istate
State
p295
(dp296
g7
(lp297
sg9
(dp298
S'h'
p299
g12
ssg13
g52
sbsS'q814'
p300
(istate
State
p301
(dp302
g7
(lp303
sg9
(dp304
g147
S'q815'
p305
ssg13
g300
sbsg305
(istate
State
p306
(dp307
g7
(lp308
sg9
(dp309
g33
S'q743'
p310
ssg13
g305
sbsS'q810'
p311
(istate
State
p312
(dp313
g7
(lp314
sg9
(dp315
g33
S'q811'
p316
ssg13
g311
sbsg316
(istate
State
p317
(dp318
g7
(lp319
sg9
(dp320
g21
S'q812'
p321
ssg13
g316
sbsg321
(istate
State
p322
(dp323
g7
(lp324
sg9
(dp325
g116
S'q813'
p326
ssg13
g321
sbsg326
(istate
State
p327
(dp328
g7
(lp329
sg9
(dp330
g21
g300
ssg13
g326
sbsg140
(istate
State
p331
(dp332
g7
(lp333
sg9
(dp334
g64
S'q195'
p335
sg21
S'q151'
p336
ssg13
g140
sbsg335
(istate
State
p337
(dp338
g7
(lp339
sg9
(dp340
g19
S'q196'
p341
ssg13
g335
sbsS'q197'
p342
(istate
State
p343
(dp344
g7
(lp345
sg9
(dp346
g137
g240
ssg13
g342
sbsg341
(istate
State
p347
(dp348
g7
(lp349
sg9
(dp350
g147
g342
ssg13
g341
sbsg100
(istate
State
p351
(dp352
g7
(lp353
sg9
(dp354
g147
S'q163'
p355
ssg13
g100
sbsS'q690'
p356
(istate
State
p357
(dp358
g7
(lp359
sg9
(dp360
g197
g229
sg21
g22
ssg13
g356
sbsS'q758'
p361
(istate
State
p362
(dp363
g7
(lp364
sg9
(dp365
g21
S'q759'
p366
ssg13
g361
sbsS'q757'
p367
(istate
State
p368
(dp369
g7
(lp370
sg9
(dp371
g11
g361
ssg13
g367
sbsg163
(istate
State
p372
(dp373
g7
(lp374
sg9
(dp375
g197
S'q775'
p376
sg299
S'q767'
p377
sg21
g367
sg58
S'q790'
p378
ssg13
g163
sbsS'q852'
p379
(istate
State
p380
(dp381
g7
(lp382
sg9
(dp383
g21
S'q853'
p384
ssg13
g379
sbsS'q698'
p385
(istate
State
p386
(dp387
g7
(lp388
sg9
(dp389
g19
g39
sg93
g45
sg58
g192
ssg13
g385
sbsS'q750'
p390
(istate
State
p391
(dp392
g7
(lp393
sg9
(dp394
g147
S'q751'
p395
ssg13
g390
sbsS'q279'
p396
(istate
State
p397
(dp398
g7
(lp399
sg9
(dp400
g64
S'q280'
p401
ssg13
g396
sbsS'q175'
p402
(istate
State
p403
(dp404
g7
(lp405
sg9
(dp406
g139
g12
ssg13
g402
sbsS'q174'
p407
(istate
State
p408
(dp409
g7
(lp410
sg9
(dp411
g19
g402
ssg13
g407
sbsS'q173'
p412
(istate
State
p413
(dp414
g7
(lp415
sg9
(dp416
g299
g407
ssg13
g412
sbsS'q172'
p417
(istate
State
p418
(dp419
g7
(lp420
sg9
(dp421
g106
g412
sg64
S'q183'
p422
sg137
S'q178'
p423
ssg13
g417
sbsS'q272'
p424
(istate
State
p425
(dp426
g7
(lp427
sg9
(dp428
g197
S'q273'
p429
ssg13
g424
sbsg429
(istate
State
p430
(dp431
g7
(lp432
sg9
(dp433
g106
S'q274'
p434
ssg13
g429
sbsg434
(istate
State
p435
(dp436
g7
(lp437
sg9
(dp438
g19
S'q275'
p439
ssg13
g434
sbsg439
(istate
State
p440
(dp441
g7
(lp442
sg9
(dp443
g197
S'q276'
p444
ssg13
g439
sbsS'q179'
p445
(istate
State
p446
(dp447
g7
(lp448
sg9
(dp449
g154
S'q180'
p450
ssg13
g445
sbsg423
(istate
State
p451
(dp452
g7
(lp453
sg9
(dp454
g19
g445
ssg13
g423
sbsg117
(istate
State
p455
(dp456
g7
(lp457
sg9
(dp458
g19
g192
ssg13
g117
sbsS'q285'
p459
(istate
State
p460
(dp461
g7
(lp462
sg9
(dp463
g80
g229
sg116
S'q59'
p464
ssg13
g459
sbsS'q284'
p465
(istate
State
p466
(dp467
g7
(lp468
sg9
(dp469
g21
g459
ssg13
g465
sbsS'q281'
p470
(istate
State
p471
(dp472
g7
(lp473
sg9
(dp474
g197
S'q282'
p475
ssg13
g470
sbsg401
(istate
State
p476
(dp477
g7
(lp478
sg9
(dp479
g33
g470
ssg13
g401
sbsS'q283'
p480
(istate
State
p481
(dp482
g7
(lp483
sg9
(dp484
g93
g465
ssg13
g480
sbsg475
(istate
State
p485
(dp486
g7
(lp487
sg9
(dp488
g93
g480
ssg13
g475
sbsg152
(istate
State
p489
(dp490
g7
(lp491
sg9
(dp492
g51
S'q624'
p493
sg93
S'q635'
p494
sS'-'
p495
S'q606'
p496
sg33
S'q638'
p497
sg139
S'q221'
p498
ssg13
g152
sbsS'q607'
p499
(istate
State
p500
(dp501
g7
(lp502
sg9
(dp503
g21
S'q608'
p504
ssg13
g499
sbsg496
(istate
State
p505
(dp506
g7
(lp507
sg9
(dp508
g137
g499
ssg13
g496
sbsS'q471'
p509
(istate
State
p510
(dp511
g7
(lp512
sg9
(dp513
g21
g12
ssg13
g509
sbsS'q476'
p514
(istate
State
p515
(dp516
g7
(lp517
sg9
(dp518
g80
S'q371'
p519
ssg13
g514
sbsS'q474'
p520
(istate
State
p521
(dp522
g7
(lp523
sg9
(dp524
g197
S'q475'
p525
ssg13
g520
sbsg525
(istate
State
p526
(dp527
g7
(lp528
sg9
(dp529
g106
g514
ssg13
g525
sbsS'q573'
p530
(istate
State
p531
(dp532
g7
(lp533
sg9
(dp534
g197
S'q574'
p535
sg93
g28
sg147
S'q581'
p536
ssg13
g530
sbsS'q576'
p537
(istate
State
p538
(dp539
g7
(lp540
sg9
(dp541
g19
g20
ssg13
g537
sbsS'q575'
p542
(istate
State
p543
(dp544
g7
(lp545
sg9
(dp546
g147
g537
ssg13
g542
sbsg535
(istate
State
p547
(dp548
g7
(lp549
sg9
(dp550
g139
g542
ssg13
g535
sbsS'q304'
p551
(istate
State
p552
(dp553
g7
(lp554
sg9
(dp555
g21
S'q305'
p556
ssg13
g551
sbsg556
(istate
State
p557
(dp558
g7
(lp559
sg9
(dp560
g147
S'q306'
p561
ssg13
g556
sbsg561
(istate
State
p562
(dp563
g7
(lp564
sg9
(dp565
g147
g12
ssg13
g561
sbsS'q149'
p566
(istate
State
p567
(dp568
g7
(lp569
sg9
(dp570
g33
S'q150'
p571
ssg13
g566
sbsS'q303'
p572
(istate
State
p573
(dp574
g7
(lp575
sg9
(dp576
g197
g551
sg64
g407
ssg13
g572
sbsS'q781'
p577
(istate
State
p578
(dp579
g7
(lp580
sg9
(dp581
g21
S'q782'
p582
ssg13
g577
sbsg582
(istate
State
p583
(dp584
g7
(lp585
sg9
(dp586
g116
S'q783'
p587
ssg13
g582
sbsg587
(istate
State
p588
(dp589
g7
(lp590
sg9
(dp591
g19
S'q784'
p592
ssg13
g587
sbsg592
(istate
State
p593
(dp594
g7
(lp595
sg9
(dp596
g33
S'q343'
p597
ssg13
g592
sbsg12
(istate
State
p598
(dp599
g7
(lp600
sg9
(dp601
g21
g45
ssg13
g12
sbsg176
(istate
State
p602
(dp603
g7
(lp604
sg9
(dp605
g21
S'q18'
p606
ssg13
g176
sbsS'q11'
p607
(istate
State
p608
(dp609
g7
(lp610
sg9
(dp611
g93
S'q12'
p612
ssg13
g607
sbsg177
(istate
State
p613
(dp614
g7
(lp615
sg9
(dp616
g19
g607
ssg13
g177
sbsS'q13'
p617
(istate
State
p618
(dp619
g7
(lp620
sg9
(dp621
g154
g12
sg141
g45
ssg13
g617
sbsg612
(istate
State
p622
(dp623
g7
(lp624
sg9
(dp625
g197
g617
ssg13
g612
sbsS'q627'
p626
(istate
State
p627
(dp628
g7
(lp629
sg9
(dp630
g154
g206
ssg13
g626
sbsS'q19'
p631
(istate
State
p632
(dp633
g7
(lp634
sg9
(dp635
g106
g12
sg33
S'q22'
p636
ssg13
g631
sbsg606
(istate
State
p637
(dp638
g7
(lp639
sg9
(dp640
g147
g631
ssg13
g606
sbsS'q626'
p641
(istate
State
p642
(dp643
g7
(lp644
sg9
(dp645
g19
g626
ssg13
g641
sbsg376
(istate
State
p646
(dp647
g7
(lp648
sg9
(dp649
g495
S'q776'
p650
sg147
g577
ssg13
g376
sbsS'q777'
p651
(istate
State
p652
(dp653
g7
(lp654
sg9
(dp655
g19
S'q712'
p656
ssg13
g651
sbsS'q89'
p657
(istate
State
p658
(dp659
g7
(lp660
sg9
(dp661
g147
S'q90'
p662
ssg13
g657
sbsS'q625'
p663
(istate
State
p664
(dp665
g7
(lp666
sg9
(dp667
g64
g641
ssg13
g663
sbsS'q656'
p668
(istate
State
p669
(dp670
g7
(lp671
sg9
(dp672
g197
g4
ssg13
g668
sbsS'q838'
p673
(istate
State
p674
(dp675
g7
(lp676
sg9
(dp677
g21
S'q839'
p678
ssg13
g673
sbsg493
(istate
State
p679
(dp680
g7
(lp681
sg9
(dp682
g19
g663
sg64
S'q632'
p683
ssg13
g493
sbsS'q529'
p684
(istate
State
p685
(dp686
g7
(lp687
sg9
(dp688
g93
g566
ssg13
g684
sbsg519
(istate
State
p689
(dp690
g7
(lp691
sg9
(dp692
g11
g34
ssg13
g519
sbsg76
(istate
State
p693
(dp694
g7
(lp695
sg9
(dp696
g11
g519
ssg13
g76
sbsS'q679'
p697
(istate
State
p698
(dp699
g7
(lp700
sg9
(dp701
g495
g123
ssg13
g697
sbsS'q379'
p702
(istate
State
p703
(dp704
g7
(lp705
sg9
(dp706
S'q'
p707
S'q345'
p708
sg106
g34
ssg13
g702
sbsg77
(istate
State
p709
(dp710
g7
(lp711
sg9
(dp712
g197
g702
ssg13
g77
sbsg155
(istate
State
p713
(dp714
g7
(lp715
sg9
(dp716
g19
S'q671'
p717
sg197
g385
sg64
S'q707'
p718
sg21
S'q689'
p719
ssg13
g155
sbsS'q88'
p720
(istate
State
p721
(dp722
g7
(lp723
sg9
(dp724
g58
g657
ssg13
g720
sbsS'q672'
p725
(istate
State
p726
(dp727
g7
(lp728
sg9
(dp729
g106
S'q673'
p730
sg33
g697
ssg13
g725
sbsg730
(istate
State
p731
(dp732
g7
(lp733
sg9
(dp734
g21
S'q674'
p735
ssg13
g730
sbsS'q155'
p736
(istate
State
p737
(dp738
g7
(lp739
sg9
(dp740
g51
g39
ssg13
g736
sbsg336
(istate
State
p741
(dp742
g7
(lp743
sg9
(dp744
g147
S'q152'
p745
ssg13
g336
sbsg571
(istate
State
p746
(dp747
g7
(lp748
sg9
(dp749
g19
g336
ssg13
g571
sbsg745
(istate
State
p750
(dp751
g7
(lp752
sg9
(dp753
g106
g12
ssg13
g745
sbsS'q231'
p754
(istate
State
p755
(dp756
g7
(lp757
sg9
(dp758
g58
S'q232'
p759
ssg13
g754
sbsg250
(istate
State
p760
(dp761
g7
(lp762
sg9
(dp763
g80
g745
ssg13
g250
sbsS'q555'
p764
(istate
State
p765
(dp766
g7
(lp767
sg9
(dp768
g106
S'q556'
p769
ssg13
g764
sbsg246
(istate
State
p770
(dp771
g7
(lp772
sg9
(dp773
g147
g764
ssg13
g246
sbsS'q557'
p774
(istate
State
p775
(dp776
g7
(lp777
sg9
(dp778
g64
S'q558'
p779
ssg13
g774
sbsg769
(istate
State
p780
(dp781
g7
(lp782
sg9
(dp783
g299
g774
ssg13
g769
sbsS'q559'
p784
(istate
State
p785
(dp786
g7
(lp787
sg9
(dp788
g147
g12
ssg13
g784
sbsg779
(istate
State
p789
(dp790
g7
(lp791
sg9
(dp792
g58
g784
ssg13
g779
sbsS'q440'
p793
(istate
State
p794
(dp795
g7
(lp796
sg9
(dp797
g106
S'q441'
p798
ssg13
g793
sbsg81
(istate
State
p799
(dp800
g7
(lp801
sg9
(dp802
g197
g45
ssg13
g81
sbsS'q411'
p803
(istate
State
p804
(dp805
g7
(lp806
sg9
(dp807
g197
g422
ssg13
g803
sbsS'q327'
p808
(istate
State
p809
(dp810
g7
(lp811
sg9
(dp812
g137
S'q328'
p813
ssg13
g808
sbsg813
(istate
State
p814
(dp815
g7
(lp816
sg9
(dp817
g197
S'q329'
p818
ssg13
g813
sbsg818
(istate
State
p819
(dp820
g7
(lp821
sg9
(dp822
g93
S'q330'
p823
ssg13
g818
sbsS'q830'
p824
(istate
State
p825
(dp826
g7
(lp827
sg9
(dp828
g58
S'q240'
p829
ssg13
g824
sbsg650
(istate
State
p830
(dp831
g7
(lp832
sg9
(dp833
g299
g651
ssg13
g650
sbsS'q487'
p834
(istate
State
p835
(dp836
g7
(lp837
sg9
(dp838
g93
S'q99'
p839
ssg13
g834
sbsS'q486'
p840
(istate
State
p841
(dp842
g7
(lp843
sg9
(dp844
g147
g834
ssg13
g840
sbsg248
(istate
State
p845
(dp846
g7
(lp847
sg9
(dp848
g21
g840
ssg13
g248
sbsg22
(istate
State
p849
(dp850
g7
(lp851
sg9
(dp852
g116
g464
ssg13
g22
sbsS'q77'
p853
(istate
State
p854
(dp855
g7
(lp856
sg9
(dp857
g21
g22
ssg13
g853
sbsS'q76'
p858
(istate
State
p859
(dp860
g7
(lp861
sg9
(dp862
g93
g853
ssg13
g858
sbsS'q75'
p863
(istate
State
p864
(dp865
g7
(lp866
sg9
(dp867
g93
g858
ssg13
g863
sbsg240
(istate
State
p868
(dp869
g7
(lp870
sg9
(dp871
g197
g863
ssg13
g240
sbsS'q73'
p872
(istate
State
p873
(dp874
g7
(lp875
sg9
(dp876
g11
g240
ssg13
g872
sbsg223
(istate
State
p877
(dp878
g7
(lp879
sg9
(dp880
g64
S'q564'
p881
ssg13
g223
sbsg656
(istate
State
p882
(dp883
g7
(lp884
sg9
(dp885
g80
g40
ssg13
g656
sbsS'q711'
p886
(istate
State
p887
(dp888
g7
(lp889
sg9
(dp890
g116
g656
ssg13
g886
sbsg157
(istate
State
p891
(dp892
g7
(lp893
sg9
(dp894
g197
g886
ssg13
g157
sbsS'q717'
p895
(istate
State
p896
(dp897
g7
(lp898
sg9
(dp899
g197
S'q724'
p900
sg21
S'q718'
p901
ssg13
g895
sbsS'q716'
p902
(istate
State
p903
(dp904
g7
(lp905
sg9
(dp906
g93
g895
ssg13
g902
sbsg164
(istate
State
p907
(dp908
g7
(lp909
sg9
(dp910
g19
g902
sg197
S'q730'
p911
sg58
S'q747'
p912
ssg13
g164
sbsS'q850'
p913
(istate
State
p914
(dp915
g7
(lp916
sg9
(dp917
g707
S'q851'
p918
ssg13
g913
sbsg918
(istate
State
p919
(dp920
g7
(lp921
sg9
(dp922
g80
g379
ssg13
g918
sbsS'q719'
p923
(istate
State
p924
(dp925
g7
(lp926
sg9
(dp927
g27
S'q720'
p928
ssg13
g923
sbsg901
(istate
State
p929
(dp930
g7
(lp931
sg9
(dp932
g495
g923
ssg13
g901
sbsS'q83'
p933
(istate
State
p934
(dp935
g7
(lp936
sg9
(dp937
g137
g45
ssg13
g933
sbsS'q250'
p938
(istate
State
p939
(dp940
g7
(lp941
sg9
(dp942
g58
S'q142'
p943
ssg13
g938
sbsS'q85'
p944
(istate
State
p945
(dp946
g7
(lp947
sg9
(dp948
g19
g40
ssg13
g944
sbsS'q395'
p949
(istate
State
p950
(dp951
g7
(lp952
sg9
(dp953
g147
S'q132'
p954
ssg13
g949
sbsS'q394'
p955
(istate
State
p956
(dp957
g7
(lp958
sg9
(dp959
g21
g949
ssg13
g955
sbsS'q393'
p960
(istate
State
p961
(dp962
g7
(lp963
sg9
(dp964
g299
g955
ssg13
g960
sbsg79
(istate
State
p965
(dp966
g7
(lp967
sg9
(dp968
g21
g960
sg58
S'q401'
p969
ssg13
g79
sbsS'q258'
p970
(istate
State
p971
(dp972
g7
(lp973
sg9
(dp974
g19
S'q233'
p975
sg137
g853
ssg13
g970
sbsS'q655'
p976
(istate
State
p977
(dp978
g7
(lp979
sg9
(dp980
g27
g668
ssg13
g976
sbsS'q139'
p981
(istate
State
p982
(dp983
g7
(lp984
sg9
(dp985
g197
S'q140'
p986
ssg13
g981
sbsS'q138'
p987
(istate
State
p988
(dp989
g7
(lp990
sg9
(dp991
g33
g566
sg147
g981
ssg13
g987
sbsg954
(istate
State
p992
(dp993
g7
(lp994
sg9
(dp995
g93
g182
ssg13
g954
sbsS'q131'
p996
(istate
State
p997
(dp998
g7
(lp999
sg9
(dp1000
g21
g954
ssg13
g996
sbsS'q137'
p1001
(istate
State
p1002
(dp1003
g7
(lp1004
sg9
(dp1005
g197
g987
ssg13
g1001
sbsS'q849'
p1006
(istate
State
p1007
(dp1008
g7
(lp1009
sg9
(dp1010
g21
g913
ssg13
g1006
sbsg798
(istate
State
p1011
(dp1012
g7
(lp1013
sg9
(dp1014
g33
S'q442'
p1015
ssg13
g798
sbsS'q208'
p1016
(istate
State
p1017
(dp1018
g7
(lp1019
sg9
(dp1020
g93
S'q209'
p1021
ssg13
g1016
sbsS'q436'
p1022
(istate
State
p1023
(dp1024
g7
(lp1025
sg9
(dp1026
g299
S'q437'
p1027
ssg13
g1022
sbsg1027
(istate
State
p1028
(dp1029
g7
(lp1030
sg9
(dp1031
g197
S'q438'
p1032
ssg13
g1027
sbsg151
(istate
State
p1033
(dp1034
g7
(lp1035
sg9
(dp1036
g106
g1022
sg64
S'q460'
p1037
sg116
g212
sg33
g520
sg139
S'q446'
p1038
ssg13
g151
sbsS'q432'
p1039
(istate
State
p1040
(dp1041
g7
(lp1042
sg9
(dp1043
g137
g12
ssg13
g1039
sbsS'q430'
p1044
(istate
State
p1045
(dp1046
g7
(lp1047
sg9
(dp1048
g33
S'q431'
p1049
ssg13
g1044
sbsg1049
(istate
State
p1050
(dp1051
g7
(lp1052
sg9
(dp1053
g80
g1039
ssg13
g1049
sbsg1032
(istate
State
p1054
(dp1055
g7
(lp1056
sg9
(dp1057
g33
S'q439'
p1058
ssg13
g1032
sbsg1058
(istate
State
p1059
(dp1060
g7
(lp1061
sg9
(dp1062
g21
g793
ssg13
g1058
sbsg149
(istate
State
p1063
(dp1064
g7
(lp1065
sg9
(dp1066
g51
g70
sg64
S'q421'
p1067
sg33
S'q429'
p1068
sg58
S'q349'
p1069
ssg13
g149
sbsg1069
(istate
State
p1070
(dp1071
g7
(lp1072
sg9
(dp1073
g93
g65
ssg13
g1069
sbsS'q53'
p1074
(istate
State
p1075
(dp1076
g7
(lp1077
sg9
(dp1078
g11
S'q54'
p1079
ssg13
g1074
sbsS'q52'
p1080
(istate
State
p1081
(dp1082
g7
(lp1083
sg9
(dp1084
g197
g1074
ssg13
g1080
sbsS'q223'
p1085
(istate
State
p1086
(dp1087
g7
(lp1088
sg9
(dp1089
g147
g28
ssg13
g1085
sbsg1079
(istate
State
p1090
(dp1091
g7
(lp1092
sg9
(dp1093
g197
S'q55'
p1094
ssg13
g1079
sbsg498
(istate
State
p1095
(dp1096
g7
(lp1097
sg9
(dp1098
g116
g239
ssg13
g498
sbsg146
(istate
State
p1099
(dp1100
g7
(lp1101
sg9
(dp1102
g197
g498
sg80
g829
sg11
g754
ssg13
g146
sbsS'q340'
p1103
(istate
State
p1104
(dp1105
g7
(lp1106
sg9
(dp1107
g64
S'q341'
p1108
ssg13
g1103
sbsg1108
(istate
State
p1109
(dp1110
g7
(lp1111
sg9
(dp1112
g51
S'q342'
p1113
ssg13
g1108
sbsg1113
(istate
State
p1114
(dp1115
g7
(lp1116
sg9
(dp1117
g299
g597
ssg13
g1113
sbsg597
(istate
State
p1118
(dp1119
g7
(lp1120
sg9
(dp1121
g197
S'q344'
p1122
ssg13
g597
sbsg1122
(istate
State
p1123
(dp1124
g7
(lp1125
sg9
(dp1126
g707
g708
ssg13
g1122
sbsg708
(istate
State
p1127
(dp1128
g7
(lp1129
sg9
(dp1130
g80
g12
ssg13
g708
sbsg735
(istate
State
p1131
(dp1132
g7
(lp1133
sg9
(dp1134
g116
g464
ssg13
g735
sbsg683
(istate
State
p1135
(dp1136
g7
(lp1137
sg9
(dp1138
g21
S'q612'
p1139
ssg13
g683
sbsg494
(istate
State
p1140
(dp1141
g7
(lp1142
sg9
(dp1143
g93
g81
ssg13
g494
sbsg497
(istate
State
p1144
(dp1145
g7
(lp1146
sg9
(dp1147
g19
g211
sg58
S'q642'
p1148
ssg13
g497
sbsg911
(istate
State
p1149
(dp1150
g7
(lp1151
sg9
(dp1152
g58
S'q731'
p1153
ssg13
g911
sbsS'q733'
p1154
(istate
State
p1155
(dp1156
g7
(lp1157
sg9
(dp1158
g106
S'q734'
p1159
sg137
S'q741'
p1160
ssg13
g1154
sbsS'q732'
p1161
(istate
State
p1162
(dp1163
g7
(lp1164
sg9
(dp1165
g21
g1154
ssg13
g1161
sbsS'q735'
p1166
(istate
State
p1167
(dp1168
g7
(lp1169
sg9
(dp1170
g147
g597
ssg13
g1166
sbsg1159
(istate
State
p1171
(dp1172
g7
(lp1173
sg9
(dp1174
g19
g1166
ssg13
g1159
sbsg717
(istate
State
p1175
(dp1176
g7
(lp1177
sg9
(dp1178
g147
g725
ssg13
g717
sbsS'q502'
p1179
(istate
State
p1180
(dp1181
g7
(lp1182
sg9
(dp1183
g27
S'q503'
p1184
ssg13
g1179
sbsg1184
(istate
State
p1185
(dp1186
g7
(lp1187
sg9
(dp1188
g11
S'q504'
p1189
ssg13
g1184
sbsg249
(istate
State
p1190
(dp1191
g7
(lp1192
sg9
(dp1193
g197
g684
sg80
S'q544'
p1194
sg21
S'q501'
p1195
sg58
S'q536'
p1196
ssg13
g249
sbsg1195
(istate
State
p1197
(dp1198
g7
(lp1199
sg9
(dp1200
g64
g234
sg116
g1179
ssg13
g1195
sbsg1189
(istate
State
p1201
(dp1202
g7
(lp1203
sg9
(dp1204
g19
g402
sg21
g12
ssg13
g1189
sbsS'q594'
p1205
(istate
State
p1206
(dp1207
g7
(lp1208
sg9
(dp1209
g19
g450
sg197
S'q598'
p1210
ssg13
g1205
sbsS'q599'
p1211
(istate
State
p1212
(dp1213
g7
(lp1214
sg9
(dp1215
g80
g537
ssg13
g1211
sbsg1210
(istate
State
p1216
(dp1217
g7
(lp1218
sg9
(dp1219
g27
g1211
ssg13
g1210
sbsS'q537'
p1220
(istate
State
p1221
(dp1222
g7
(lp1223
sg9
(dp1224
g197
g34
ssg13
g1220
sbsg1196
(istate
State
p1225
(dp1226
g7
(lp1227
sg9
(dp1228
g106
g1220
ssg13
g1196
sbsg422
(istate
State
p1229
(dp1230
g7
(lp1231
sg9
(dp1232
g116
g34
ssg13
g422
sbsg450
(istate
State
p1233
(dp1234
g7
(lp1235
sg9
(dp1236
g197
g40
ssg13
g450
sbsS'q748'
p1237
(istate
State
p1238
(dp1239
g7
(lp1240
sg9
(dp1241
g11
S'q749'
p1242
ssg13
g1237
sbsg1242
(istate
State
p1243
(dp1244
g7
(lp1245
sg9
(dp1246
g58
g390
ssg13
g1242
sbsg912
(istate
State
p1247
(dp1248
g7
(lp1249
sg9
(dp1250
g80
g1237
ssg13
g912
sbsg1160
(istate
State
p1251
(dp1252
g7
(lp1253
sg9
(dp1254
g197
S'q742'
p1255
ssg13
g1160
sbsg1255
(istate
State
p1256
(dp1257
g7
(lp1258
sg9
(dp1259
g106
g310
ssg13
g1255
sbsg310
(istate
State
p1260
(dp1261
g7
(lp1262
sg9
(dp1263
g19
g4
ssg13
g310
sbsg142
(istate
State
p1264
(dp1265
g7
(lp1266
sg9
(dp1267
g141
S'q167'
p1268
ssg13
g142
sbsg1268
(istate
State
p1269
(dp1270
g7
(lp1271
sg9
(dp1272
g19
g217
sg197
g417
ssg13
g1268
sbsg1021
(istate
State
p1273
(dp1274
g7
(lp1275
sg9
(dp1276
g33
g14
ssg13
g1021
sbsS'q161'
p1277
(istate
State
p1278
(dp1279
g7
(lp1280
sg9
(dp1281
g21
S'q162'
p1282
ssg13
g1277
sbsg1282
(istate
State
p1283
(dp1284
g7
(lp1285
sg9
(dp1286
g93
g355
ssg13
g1282
sbsg355
(istate
State
p1287
(dp1288
g7
(lp1289
sg9
(dp1290
g93
g12
ssg13
g355
sbsg144
(istate
State
p1291
(dp1292
g7
(lp1293
sg9
(dp1294
g80
g1016
ssg13
g144
sbsg217
(istate
State
p1295
(dp1296
g7
(lp1297
sg9
(dp1298
g197
g276
ssg13
g217
sbsS'q794'
p1299
(istate
State
p1300
(dp1301
g7
(lp1302
sg9
(dp1303
g58
S'q795'
p1304
ssg13
g1299
sbsg1153
(istate
State
p1305
(dp1306
g7
(lp1307
sg9
(dp1308
g116
g1161
ssg13
g1153
sbsg1139
(istate
State
p1309
(dp1310
g7
(lp1311
sg9
(dp1312
g93
g45
ssg13
g1139
sbsS'q610'
p1313
(istate
State
p1314
(dp1315
g7
(lp1316
sg9
(dp1317
g58
S'q611'
p1318
ssg13
g1313
sbsg1318
(istate
State
p1319
(dp1320
g7
(lp1321
sg9
(dp1322
g80
g1139
ssg13
g1318
sbsS'q568'
p1323
(istate
State
p1324
(dp1325
g7
(lp1326
sg9
(dp1327
g19
g1122
sg64
g1205
sg21
g530
ssg13
g1323
sbsg1038
(istate
State
p1328
(dp1329
g7
(lp1330
sg9
(dp1331
g80
g22
sg21
g211
ssg13
g1038
sbsg138
(istate
State
p1332
(dp1333
g7
(lp1334
sg9
(dp1335
g19
S'q114'
p1336
sg21
S'q123'
p1337
sg299
g996
sg116
g1001
sg58
g736
sg64
g1277
ssg13
g138
sbsS'q299'
p1338
(istate
State
p1339
(dp1340
g7
(lp1341
sg9
(dp1342
g245
g355
ssg13
g1338
sbsS'q115'
p1343
(istate
State
p1344
(dp1345
g7
(lp1346
sg9
(dp1347
g33
S'q116'
p1348
ssg13
g1343
sbsg1336
(istate
State
p1349
(dp1350
g7
(lp1351
sg9
(dp1352
g51
g1343
ssg13
g1336
sbsS'q117'
p1353
(istate
State
p1354
(dp1355
g7
(lp1356
sg9
(dp1357
g33
g612
ssg13
g1353
sbsg1348
(istate
State
p1358
(dp1359
g7
(lp1360
sg9
(dp1361
g19
g1353
ssg13
g1348
sbsS'q292'
p1362
(istate
State
p1363
(dp1364
g7
(lp1365
sg9
(dp1366
g11
g839
ssg13
g1362
sbsg153
(istate
State
p1367
(dp1368
g7
(lp1369
sg9
(dp1370
g21
S'q563'
p1371
sg33
g1323
ssg13
g153
sbsg1371
(istate
State
p1372
(dp1373
g7
(lp1374
sg9
(dp1375
g11
g881
ssg13
g1371
sbsg881
(istate
State
p1376
(dp1377
g7
(lp1378
sg9
(dp1379
g197
S'q565'
p1380
ssg13
g881
sbsg148
(istate
State
p1381
(dp1382
g7
(lp1383
sg9
(dp1384
g19
S'q298'
p1385
sg106
g572
sg139
g4
sg58
g808
sg147
S'q316'
p1386
sg33
S'q333'
p1387
ssg13
g148
sbsS'q51'
p1388
(istate
State
p1389
(dp1390
g7
(lp1391
sg9
(dp1392
g27
g1080
ssg13
g1388
sbsg94
(istate
State
p1393
(dp1394
g7
(lp1395
sg9
(dp1396
g197
g1388
ssg13
g94
sbsg636
(istate
State
p1397
(dp1398
g7
(lp1399
sg9
(dp1400
g21
S'q23'
p1401
ssg13
g636
sbsg1401
(istate
State
p1402
(dp1403
g7
(lp1404
sg9
(dp1405
g197
S'q24'
p1406
ssg13
g1401
sbsg1406
(istate
State
p1407
(dp1408
g7
(lp1409
sg9
(dp1410
g93
S'q25'
p1411
ssg13
g1406
sbsg1411
(istate
State
p1412
(dp1413
g7
(lp1414
sg9
(dp1415
g116
g12
ssg13
g1411
sbsg135
(istate
State
p1416
(dp1417
g7
(lp1418
sg9
(dp1419
g299
g944
sg106
S'q29'
p1420
sg64
g720
sg80
g1079
sg33
S'q94'
p1421
ssg13
g135
sbsg1420
(istate
State
p1422
(dp1423
g7
(lp1424
sg9
(dp1425
g197
S'q58'
p1426
sg21
g271
sg58
S'q63'
p1427
ssg13
g1420
sbsg366
(istate
State
p1428
(dp1429
g7
(lp1430
sg9
(dp1431
g27
g943
ssg13
g366
sbsg239
(istate
State
p1432
(dp1433
g7
(lp1434
sg9
(dp1435
g21
g1085
ssg13
g239
sbsS'q807'
p1436
(istate
State
p1437
(dp1438
g7
(lp1439
sg9
(dp1440
g51
S'q808'
p1441
ssg13
g1436
sbsS'q803'
p1442
(istate
State
p1443
(dp1444
g7
(lp1445
sg9
(dp1446
g93
g1094
ssg13
g1442
sbsS'q802'
p1447
(istate
State
p1448
(dp1449
g7
(lp1450
sg9
(dp1451
g197
g1442
ssg13
g1447
sbsS'q801'
p1452
(istate
State
p1453
(dp1454
g7
(lp1455
sg9
(dp1456
g147
g1447
ssg13
g1452
sbsS'q800'
p1457
(istate
State
p1458
(dp1459
g7
(lp1460
sg9
(dp1461
g147
g1452
ssg13
g1457
sbsg1385
(istate
State
p1462
(dp1463
g7
(lp1464
sg9
(dp1465
g11
g1338
ssg13
g1385
sbsS'q809'
p1466
(istate
State
p1467
(dp1468
g7
(lp1469
sg9
(dp1470
g64
g311
ssg13
g1466
sbsg1441
(istate
State
p1471
(dp1472
g7
(lp1473
sg9
(dp1474
g58
g1466
ssg13
g1441
sbsg128
(istate
State
p1475
(dp1476
g7
(lp1477
sg9
(dp1478
g64
S'q682'
p1479
ssg13
g128
sbsS'q367'
p1480
(istate
State
p1481
(dp1482
g7
(lp1483
sg9
(dp1484
g33
S'q277'
p1485
ssg13
g1480
sbsS'q768'
p1486
(istate
State
p1487
(dp1488
g7
(lp1489
sg9
(dp1490
g141
g218
ssg13
g1486
sbsg1479
(istate
State
p1491
(dp1492
g7
(lp1493
sg9
(dp1494
g19
g1139
ssg13
g1479
sbsS'q362'
p1495
(istate
State
p1496
(dp1497
g7
(lp1498
sg9
(dp1499
g11
g407
ssg13
g1495
sbsg87
(istate
State
p1500
(dp1501
g7
(lp1502
sg9
(dp1503
g197
S'q361'
p1504
sg147
g1480
ssg13
g87
sbsg1504
(istate
State
p1505
(dp1506
g7
(lp1507
sg9
(dp1508
g11
g1495
ssg13
g1504
sbsg719
(istate
State
p1509
(dp1510
g7
(lp1511
sg9
(dp1512
g147
g356
ssg13
g719
sbsg384
(istate
State
p1513
(dp1514
g7
(lp1515
sg9
(dp1516
g116
g22
ssg13
g384
sbsg377
(istate
State
p1517
(dp1518
g7
(lp1519
sg9
(dp1520
g197
g1486
ssg13
g377
sbsg1015
(istate
State
p1521
(dp1522
g7
(lp1523
sg9
(dp1524
g80
g276
ssg13
g1015
sbsg943
(istate
State
p1525
(dp1526
g7
(lp1527
sg9
(dp1528
g64
g34
ssg13
g943
sbsg986
(istate
State
p1529
(dp1530
g7
(lp1531
sg9
(dp1532
g93
S'q141'
p1533
ssg13
g986
sbsg1533
(istate
State
p1534
(dp1535
g7
(lp1536
sg9
(dp1537
g33
g943
ssg13
g1533
sbsg839
(istate
State
p1538
(dp1539
g7
(lp1540
sg9
(dp1541
g21
g224
ssg13
g839
sbsS'q98'
p1542
(istate
State
p1543
(dp1544
g7
(lp1545
sg9
(dp1546
g147
g839
ssg13
g1542
sbsg1421
(istate
State
p1547
(dp1548
g7
(lp1549
sg9
(dp1550
g197
S'q96'
p1551
sg21
g45
ssg13
g1421
sbsS'q97'
p1552
(istate
State
p1553
(dp1554
g7
(lp1555
sg9
(dp1556
g147
g1542
ssg13
g1552
sbsg1551
(istate
State
p1557
(dp1558
g7
(lp1559
sg9
(dp1560
g58
g1552
sg154
g34
ssg13
g1551
sbsg662
(istate
State
p1561
(dp1562
g7
(lp1563
sg9
(dp1564
g245
g1411
ssg13
g662
sbsg1194
(istate
State
p1565
(dp1566
g7
(lp1567
sg9
(dp1568
g64
g571
ssg13
g1194
sbsg1380
(istate
State
p1569
(dp1570
g7
(lp1571
sg9
(dp1572
g21
g229
ssg13
g1380
sbsS'q825'
p1573
(istate
State
p1574
(dp1575
g7
(lp1576
sg9
(dp1577
g21
S'q826'
p1578
ssg13
g1573
sbsg395
(istate
State
p1579
(dp1580
g7
(lp1581
sg9
(dp1582
g147
g407
ssg13
g395
sbsg1037
(istate
State
p1583
(dp1584
g7
(lp1585
sg9
(dp1586
g197
S'q463'
p1587
sg21
g40
ssg13
g1037
sbsg1587
(istate
State
p1588
(dp1589
g7
(lp1590
sg9
(dp1591
g116
g407
sg21
g276
sg154
g509
ssg13
g1587
sbsS'q317'
p1592
(istate
State
p1593
(dp1594
g7
(lp1595
sg9
(dp1596
g19
S'q318'
p1597
sS'x'
p1598
g12
sg21
g45
ssg13
g1592
sbsg1386
(istate
State
p1599
(dp1600
g7
(lp1601
sg9
(dp1602
g21
g1592
sg58
g336
ssg13
g1386
sbsS'q799'
p1603
(istate
State
p1604
(dp1605
g7
(lp1606
sg9
(dp1607
g58
g1457
ssg13
g1603
sbsS'q798'
p1608
(istate
State
p1609
(dp1610
g7
(lp1611
sg9
(dp1612
g197
g1603
ssg13
g1608
sbsS'q793'
p1613
(istate
State
p1614
(dp1615
g7
(lp1616
sg9
(dp1617
g27
g1299
ssg13
g1613
sbsS'q792'
p1618
(istate
State
p1619
(dp1620
g7
(lp1621
sg9
(dp1622
g19
g1613
ssg13
g1618
sbsS'q791'
p1623
(istate
State
p1624
(dp1625
g7
(lp1626
sg9
(dp1627
g11
g1618
ssg13
g1623
sbsg378
(istate
State
p1628
(dp1629
g7
(lp1630
sg9
(dp1631
g116
g1436
sg11
g1623
sg147
S'q820'
p1632
ssg13
g378
sbsS'q797'
p1633
(istate
State
p1634
(dp1635
g7
(lp1636
sg9
(dp1637
g33
g1608
ssg13
g1633
sbsS'q796'
p1638
(istate
State
p1639
(dp1640
g7
(lp1641
sg9
(dp1642
g19
g1633
ssg13
g1638
sbsg1304
(istate
State
p1643
(dp1644
g7
(lp1645
sg9
(dp1646
g64
g1638
ssg13
g1304
sbsg1597
(istate
State
p1647
(dp1648
g7
(lp1649
sg9
(dp1650
g80
g45
ssg13
g1597
sbsg247
(istate
State
p1651
(dp1652
g7
(lp1653
sg9
(dp1654
g197
S'q493'
p1655
ssg13
g247
sbsg1655
(istate
State
p1656
(dp1657
g7
(lp1658
sg9
(dp1659
g64
S'q494'
p1660
ssg13
g1655
sbsg1660
(istate
State
p1661
(dp1662
g7
(lp1663
sg9
(dp1664
g19
S'q495'
p1665
ssg13
g1660
sbsg1665
(istate
State
p1666
(dp1667
g7
(lp1668
sg9
(dp1669
g33
g839
ssg13
g1665
sbsg718
(istate
State
p1670
(dp1671
g7
(lp1672
sg9
(dp1673
g197
S'q708'
p1674
ssg13
g718
sbsg1674
(istate
State
p1675
(dp1676
g7
(lp1677
sg9
(dp1678
g11
g45
ssg13
g1674
sbsS'q824'
p1679
(istate
State
p1680
(dp1681
g7
(lp1682
sg9
(dp1683
g139
g1573
ssg13
g1679
sbsS'q827'
p1684
(istate
State
p1685
(dp1686
g7
(lp1687
sg9
(dp1688
g197
g12
ssg13
g1684
sbsg1578
(istate
State
p1689
(dp1690
g7
(lp1691
sg9
(dp1692
g64
g1684
ssg13
g1578
sbsS'q821'
p1693
(istate
State
p1694
(dp1695
g7
(lp1696
sg9
(dp1697
g197
S'q822'
p1698
ssg13
g1693
sbsg1632
(istate
State
p1699
(dp1700
g7
(lp1701
sg9
(dp1702
g93
g1006
sg106
g1693
sg137
g824
sg147
g673
ssg13
g1632
sbsS'q823'
p1703
(istate
State
p1704
(dp1705
g7
(lp1706
sg9
(dp1707
g64
g1679
ssg13
g1703
sbsg1698
(istate
State
p1708
(dp1709
g7
(lp1710
sg9
(dp1711
g21
g1703
ssg13
g1698
sbsg78
(istate
State
p1712
(dp1713
g7
(lp1714
sg9
(dp1715
g64
g40
ssg13
g78
sbsS'q661'
p1716
(istate
State
p1717
(dp1718
g7
(lp1719
sg9
(dp1720
g93
g34
ssg13
g1716
sbsS'q660'
p1721
(istate
State
p1722
(dp1723
g7
(lp1724
sg9
(dp1725
g197
g1716
ssg13
g1721
sbsg1337
(istate
State
p1726
(dp1727
g7
(lp1728
sg9
(dp1729
g707
S'q124'
p1730
ssg13
g1337
sbsg1730
(istate
State
p1731
(dp1732
g7
(lp1733
sg9
(dp1734
g80
g34
ssg13
g1730
sbsS'q423'
p1735
(istate
State
p1736
(dp1737
g7
(lp1738
sg9
(dp1739
g495
S'q424'
p1740
ssg13
g1735
sbsg444
(istate
State
p1741
(dp1742
g7
(lp1743
sg9
(dp1744
g147
g1485
ssg13
g444
sbsg1485
(istate
State
p1745
(dp1746
g7
(lp1747
sg9
(dp1748
g21
g45
ssg13
g1485
sbsS'q582'
p1749
(istate
State
p1750
(dp1751
g7
(lp1752
sg9
(dp1753
g197
g187
sg21
g45
ssg13
g1749
sbsg969
(istate
State
p1754
(dp1755
g7
(lp1756
sg9
(dp1757
g1598
g803
sg106
g52
sg27
g34
ssg13
g969
sbsS'q339'
p1758
(istate
State
p1759
(dp1760
g7
(lp1761
sg9
(dp1762
g58
g1103
ssg13
g1758
sbsS'q338'
p1763
(istate
State
p1764
(dp1765
g7
(lp1766
sg9
(dp1767
g116
g1758
ssg13
g1763
sbsg759
(istate
State
p1768
(dp1769
g7
(lp1770
sg9
(dp1771
g147
g975
ssg13
g759
sbsg975
(istate
State
p1772
(dp1773
g7
(lp1774
sg9
(dp1775
g139
g853
ssg13
g975
sbsS'q335'
p1776
(istate
State
p1777
(dp1778
g7
(lp1779
sg9
(dp1780
g58
S'q336'
p1781
ssg13
g1776
sbsS'q334'
p1782
(istate
State
p1783
(dp1784
g7
(lp1785
sg9
(dp1786
g64
g1776
ssg13
g1782
sbsS'q337'
p1787
(istate
State
p1788
(dp1789
g7
(lp1790
sg9
(dp1791
g58
g1763
ssg13
g1787
sbsg1781
(istate
State
p1792
(dp1793
g7
(lp1794
sg9
(dp1795
g51
g1787
ssg13
g1781
sbsg823
(istate
State
p1796
(dp1797
g7
(lp1798
sg9
(dp1799
g21
g1485
ssg13
g823
sbsg1387
(istate
State
p1800
(dp1801
g7
(lp1802
sg9
(dp1803
g299
g1782
ssg13
g1387
sbsg678
(istate
State
p1804
(dp1805
g7
(lp1806
sg9
(dp1807
g1598
g182
sg106
g1665
ssg13
g678
sbsS'q64'
p1808
(istate
State
p1809
(dp1810
g7
(lp1811
sg9
(dp1812
g51
g872
sg116
S'q65'
p1813
ssg13
g1808
sbsg1813
(istate
State
p1814
(dp1815
g7
(lp1816
sg9
(dp1817
g58
S'q66'
p1818
ssg13
g1813
sbsg1818
(istate
State
p1819
(dp1820
g7
(lp1821
sg9
(dp1822
g137
g34
ssg13
g1818
sbsg211
(istate
State
p1823
(dp1824
g7
(lp1825
sg9
(dp1826
g147
g40
ssg13
g211
sbsg1427
(istate
State
p1827
(dp1828
g7
(lp1829
sg9
(dp1830
g64
g933
sg116
g1808
ssg13
g1427
sbsS'q645'
p1831
(istate
State
p1832
(dp1833
g7
(lp1834
sg9
(dp1835
g197
S'q646'
p1836
ssg13
g1831
sbsS'q644'
p1837
(istate
State
p1838
(dp1839
g7
(lp1840
sg9
(dp1841
g33
g1831
ssg13
g1837
sbsS'q647'
p1842
(istate
State
p1843
(dp1844
g7
(lp1845
sg9
(dp1846
g19
g39
sg116
g12
ssg13
g1842
sbsg1836
(istate
State
p1847
(dp1848
g7
(lp1849
sg9
(dp1850
g93
g1842
ssg13
g1836
sbsS'q643'
p1851
(istate
State
p1852
(dp1853
g7
(lp1854
sg9
(dp1855
g19
g1837
sg58
g976
ssg13
g1851
sbsg1148
(istate
State
p1856
(dp1857
g7
(lp1858
sg9
(dp1859
g80
g229
sg64
g1721
sg116
g1851
ssg13
g1148
sbsg900
(istate
State
p1860
(dp1861
g7
(lp1862
sg9
(dp1863
g11
S'q725'
p1864
ssg13
g900
sbsg1864
(istate
State
p1865
(dp1866
g7
(lp1867
sg9
(dp1868
g19
g217
ssg13
g1864
sbsg928
(istate
State
p1869
(dp1870
g7
(lp1871
sg9
(dp1872
g19
S'q721'
p1873
ssg13
g928
sbsg1873
(istate
State
p1874
(dp1875
g7
(lp1876
sg9
(dp1877
g11
g1674
ssg13
g1873
sbsS'q241'
p1878
(istate
State
p1879
(dp1880
g7
(lp1881
sg9
(dp1882
g197
S'q242'
p1883
ssg13
g1878
sbsg829
(istate
State
p1884
(dp1885
g7
(lp1886
sg9
(dp1887
g116
g1878
ssg13
g829
sbsS'q243'
p1888
(istate
State
p1889
(dp1890
g7
(lp1891
sg9
(dp1892
g197
S'q244'
p1893
ssg13
g1888
sbsg1883
(istate
State
p1894
(dp1895
g7
(lp1896
sg9
(dp1897
g147
g1888
ssg13
g1883
sbsS'q245'
p1898
(istate
State
p1899
(dp1900
g7
(lp1901
sg9
(dp1902
g116
g45
ssg13
g1898
sbsg1893
(istate
State
p1903
(dp1904
g7
(lp1905
sg9
(dp1906
g80
g1898
ssg13
g1893
sbsg145
(istate
State
p1907
(dp1908
g7
(lp1909
sg9
(dp1910
g51
g1362
sg21
S'q248'
p1911
sg58
g396
ssg13
g145
sbsS'q249'
p1912
(istate
State
p1913
(dp1914
g7
(lp1915
sg9
(dp1916
g197
g938
ssg13
g1912
sbsg1911
(istate
State
p1917
(dp1918
g7
(lp1919
sg9
(dp1920
g64
g424
sg11
g1912
sg147
g970
ssg13
g1911
sbsS'q609'
p1921
(istate
State
p1922
(dp1923
g7
(lp1924
sg9
(dp1925
g93
g1313
ssg13
g1921
sbsg464
(istate
State
p1926
(dp1927
g7
(lp1928
sg9
(dp1929
g21
g211
ssg13
g464
sbsg504
(istate
State
p1930
(dp1931
g7
(lp1932
sg9
(dp1933
g93
g1921
ssg13
g504
sbsg1067
(istate
State
p1934
(dp1935
g7
(lp1936
sg9
(dp1937
g21
S'q422'
p1938
ssg13
g1067
sbsg1426
(istate
State
p1939
(dp1940
g7
(lp1941
sg9
(dp1942
g137
g464
ssg13
g1426
sbsg1938
(istate
State
p1943
(dp1944
g7
(lp1945
sg9
(dp1946
g93
g1735
ssg13
g1938
sbsg129
(istate
State
p1947
(dp1948
g7
(lp1949
sg9
(dp1950
g197
S'q426'
p1951
ssg13
g129
sbsg1740
(istate
State
p1952
(dp1953
g7
(lp1954
sg9
(dp1955
g116
g129
ssg13
g1740
sbsg1951
(istate
State
p1956
(dp1957
g7
(lp1958
sg9
(dp1959
g137
g81
ssg13
g1951
sbsg1068
(istate
State
p1960
(dp1961
g7
(lp1962
sg9
(dp1963
g197
g1044
ssg13
g1068
sbsg536
(istate
State
p1964
(dp1965
g7
(lp1966
sg9
(dp1967
g33
g1749
ssg13
g536
sbsg1094
(istate
State
p1968
(dp1969
g7
(lp1970
sg9
(dp1971
g33
g12
ssg13
g1094
sbssS'startState'
p1972
g158
sS'register'
p1973
(dp1974
g82
I01
sg75
I01
sg626
I01
sg641
I01
sg663
I01
sg493
I01
sg206
I01
sg218
I01
sg52
I01
sg140
I01
sg335
I01
sg342
I01
sg341
I01
sg366
I01
sg361
I01
sg367
I01
sg163
I01
sg395
I01
sg390
I01
sg396
I01
sg402
I01
sg407
I01
sg412
I01
sg417
I01
sg424
I01
sg429
I01
sg434
I01
sg439
I01
sg445
I01
sg423
I01
sg459
I01
sg465
I01
sg470
I01
sg401
I01
sg480
I01
sg475
I01
sg509
I01
sg514
I01
sg520
I01
sg525
I01
sg530
I01
sg537
I01
sg542
I01
sg535
I01
sg551
I01
sg556
I01
sg561
I01
sg1551
I01
sg572
I01
sg12
I01
sg176
I01
sg607
I01
sg177
I01
sg617
I01
sg612
I01
sg631
I01
sg606
I01
sg824
I01
sg657
I01
sg673
I01
sg678
I01
sg79
I01
sg519
I01
sg76
I01
sg702
I01
sg77
I01
sg834
I01
sg840
I01
sg248
I01
sg150
I01
sg656
I01
sg886
I01
sg157
I01
sg895
I01
sg902
I01
sg164
I01
sg923
I01
sg901
I01
sg668
I01
sg976
I01
sg981
I01
sg987
I01
sg954
I01
sg996
I01
sg1001
I01
sg1022
I01
sg1027
I01
sg151
I01
sg1039
I01
sg1044
I01
sg1049
I01
sg1032
I01
sg1058
I01
sg149
I01
sg1069
I01
sg1074
I01
sg1080
I01
sg1085
I01
sg239
I01
sg498
I01
sg146
I01
sg1103
I01
sg1108
I01
sg1113
I01
sg597
I01
sg1122
I01
sg708
I01
sg1179
I01
sg1184
I01
sg249
I01
sg1195
I01
sg1189
I01
sg1139
I01
sg1313
I01
sg1318
I01
sg1388
I01
sg94
I01
sg1094
I01
sg1079
I01
sg128
I01
sg123
I01
sg1486
I01
sg1479
I01
sg1426
I01
sg719
I01
sg377
I01
sg943
I01
sg986
I01
sg1533
I01
sg839
I01
sg1542
I01
sg1421
I01
sg1552
I01
sg566
I01
sg662
I01
sg1194
I01
sg385
I01
sg1037
I01
sg1587
I01
sg1592
I01
sg1386
I01
sg1597
I01
sg1573
I01
sg1679
I01
sg1684
I01
sg1578
I01
sg1693
I01
sg1632
I01
sg1703
I01
sg1698
I01
sg78
I01
sg444
I01
sg1485
I01
sg1153
I01
sg1831
I01
sg1837
I01
sg1842
I01
sg1836
I01
sg1851
I01
sg1148
I01
sg900
I01
sg1864
I01
sg928
I01
sg1873
I01
sg464
I01
sg1067
I01
sg1735
I01
sg1938
I01
sg129
I01
sg1740
I01
sg1951
I01
sg1749
I01
sg536
I01
sg4
I01
sg14
I01
sg20
I01
sg28
I01
sg34
I01
sg40
I01
sg46
I01
sg53
I01
sg59
I01
sg65
I01
sg70
I01
sg88
I01
sg95
I01
sg101
I01
sg100
I01
sg111
I01
sg118
I01
sg117
I01
sg130
I01
sg166
I01
sg136
I01
sg39
I01
sg171
I01
sg187
I01
sg182
I01
sg45
I01
sg192
I01
sg212
I01
sg224
I01
sg229
I01
sg234
I01
sg255
I01
sg261
I01
sg266
I01
sg271
I01
sg276
I01
sg281
I01
sg286
I01
sg260
I01
sg300
I01
sg305
I01
sg311
I01
sg316
I01
sg321
I01
sg326
I01
sg1921
I01
sg504
I01
sg152
I01
sg499
I01
sg496
I01
sg577
I01
sg582
I01
sg587
I01
sg592
I01
sg376
I01
sg651
I01
sg650
I01
sg223
I01
sg697
I01
sg735
I01
sg155
I01
sg720
I01
sg725
I01
sg730
I01
sg736
I01
sg336
I01
sg571
I01
sg745
I01
sg754
I01
sg250
I01
sg764
I01
sg246
I01
sg774
I01
sg769
I01
sg784
I01
sg779
I01
sg81
I01
sg803
I01
sg808
I01
sg813
I01
sg818
I01
sg22
I01
sg853
I01
sg858
I01
sg863
I01
sg240
I01
sg872
I01
sg165
I01
sg913
I01
sg918
I01
sg379
I01
sg384
I01
sg933
I01
sg938
I01
sg944
I01
sg949
I01
sg955
I01
sg960
I01
sg684
I01
sg970
I01
sg1016
I01
sg683
I01
sg494
I01
sg497
I01
sg911
I01
sg1154
I01
sg1161
I01
sg1166
I01
sg1159
I01
sg717
I01
sg1205
I01
sg1211
I01
sg1210
I01
sg1878
I01
sg829
I01
sg422
I01
sg450
I01
sg1237
I01
sg1242
I01
sg912
I01
sg1160
I01
sg1255
I01
sg310
I01
sg142
I01
sg1268
I01
sg1021
I01
sg1277
I01
sg1282
I01
sg355
I01
sg144
I01
sg217
I01
sg1323
I01
sg1038
I01
sg138
I01
sg1338
I01
sg1343
I01
sg1336
I01
sg1353
I01
sg1348
I01
sg1362
I01
sg153
I01
sg1371
I01
sg881
I01
sg148
I01
sg636
I01
sg1401
I01
sg1406
I01
sg1411
I01
sg135
I01
sg1420
I01
sg1436
I01
sg1442
I01
sg1447
I01
sg1452
I01
sg1457
I01
sg1385
I01
sg1466
I01
sg1441
I01
sg1480
I01
sg1495
I01
sg87
I01
sg1504
I01
sg1015
I01
sg798
I01
sg793
I01
sg1380
I01
sg1603
I01
sg1608
I01
sg1613
I01
sg1618
I01
sg1623
I01
sg378
I01
sg1633
I01
sg1638
I01
sg1304
I01
sg1299
I01
sg247
I01
sg1655
I01
sg1660
I01
sg1665
I01
sg356
I01
sg718
I01
sg1674
I01
sg1716
I01
sg1721
I01
sg1337
I01
sg1730
I01
sg1068
I01
sg969
I01
sg1758
I01
sg1763
I01
sg759
I01
sg975
I01
sg1776
I01
sg1782
I01
sg1787
I01
sg1781
I01
sg823
I01
sg1387
I01
sg1808
I01
sg1813
I01
sg1818
I01
sg211
I01
sg1427
I01
sg1006
I01
sg1220
I01
sg1196
I01
sg1888
I01
sg1883
I01
sg1898
I01
sg1893
I01
sg145
I01
sg1912
I01
sg1911
I01
ssS'nameGenerator'
p1975
(inameGenerator
IndexNameGenerator
p1976
(dp1977
S'index'
p1978
I871
sbsS'finalStates'
p1979
(lp1980
g45
ag1485
ag148
ag561
ag1495
ag1022
ag1148
ag735
asb.